target datalayout = "e-m:e-p270:32:32-p271:32:32-p272:64:64-i64:64-i128:128-f80:128-n8:16:32:64-S128"
target triple = "x86_64-pc-linux-gnu"

%struct.VLC = type { i32, ptr, i32, i32 }
%struct.VLCElem = type { %union.anon.1 }
%union.anon.1 = type { %struct.anon }
%struct.anon = type { i16, i16 }

@build_vlc.vlc_buf = internal global [9296 x %struct.VLCElem] zeroinitializer, align 16

; Function Attrs: cold nounwind optsize uwtable
define internal void @build_vlc(ptr noundef %0, ptr noundef %1, ptr noundef %2, ptr noundef %3, i32 noundef %4) #0 {
  %6 = alloca ptr, align 8
  %7 = alloca ptr, align 8
  %8 = alloca ptr, align 8
  %9 = alloca ptr, align 8
  %10 = alloca i32, align 4
  %11 = alloca [256 x i8], align 16
  %12 = alloca i32, align 4
  %13 = alloca i32, align 4
  %14 = alloca i32, align 4
  %15 = alloca i32, align 4
  store ptr %0, ptr %6, align 8, !tbaa !81
  store ptr %1, ptr %7, align 8, !tbaa !44
  store ptr %2, ptr %8, align 8, !tbaa !49
  store ptr %3, ptr %9, align 8, !tbaa !102
  store i32 %4, ptr %10, align 4, !tbaa !38
  call void @llvm.lifetime.start.p0(i64 256, ptr %11) #9
  call void @llvm.lifetime.start.p0(i64 4, ptr %12) #9
  store i32 0, ptr %12, align 4, !tbaa !38
  %16 = load ptr, ptr %7, align 8, !tbaa !44
  %17 = load i32, ptr %16, align 4, !tbaa !38
  %18 = zext i32 %17 to i64
  %19 = getelementptr inbounds nuw [9296 x %struct.VLCElem], ptr @build_vlc.vlc_buf, i64 0, i64 %18
  %20 = load ptr, ptr %6, align 8, !tbaa !81
  %21 = getelementptr inbounds nuw %struct.VLC, ptr %20, i32 0, i32 1
  store ptr %19, ptr %21, align 8, !tbaa !58
  %22 = load ptr, ptr %7, align 8, !tbaa !44
  %23 = load i32, ptr %22, align 4, !tbaa !38
  %24 = zext i32 %23 to i64
  %25 = sub i64 9296, %24
  %26 = trunc i64 %25 to i32
  %27 = load ptr, ptr %6, align 8, !tbaa !81
  %28 = getelementptr inbounds nuw %struct.VLC, ptr %27, i32 0, i32 3
  store i32 %26, ptr %28, align 4, !tbaa !103
  call void @llvm.lifetime.start.p0(i64 4, ptr %13) #9
  store i32 16, ptr %13, align 4, !tbaa !38
  br label %29

29:                                               ; preds = %58, %5
  %30 = load i32, ptr %13, align 4, !tbaa !38
  %31 = icmp sgt i32 %30, 0
  br i1 %31, label %33, label %32

32:                                               ; preds = %29
  store i32 2, ptr %14, align 4
  call void @llvm.lifetime.end.p0(i64 4, ptr %13) #9
  br label %61

33:                                               ; preds = %29
  call void @llvm.lifetime.start.p0(i64 4, ptr %15) #9
  %34 = load i32, ptr %12, align 4, !tbaa !38
  %35 = load ptr, ptr %8, align 8, !tbaa !49
  %36 = load i32, ptr %13, align 4, !tbaa !38
  %37 = sub nsw i32 %36, 1
  %38 = sext i32 %37 to i64
  %39 = getelementptr inbounds i8, ptr %35, i64 %38
  %40 = load i8, ptr %39, align 1, !tbaa !78
  %41 = zext i8 %40 to i32
  %42 = add i32 %34, %41
  store i32 %42, ptr %15, align 4, !tbaa !38
  br label %43

43:                                               ; preds = %54, %33
  %44 = load i32, ptr %12, align 4, !tbaa !38
  %45 = load i32, ptr %15, align 4, !tbaa !38
  %46 = icmp ult i32 %44, %45
  br i1 %46, label %48, label %47

47:                                               ; preds = %43
  store i32 5, ptr %14, align 4
  call void @llvm.lifetime.end.p0(i64 4, ptr %15) #9
  br label %57

48:                                               ; preds = %43
  %49 = load i32, ptr %13, align 4, !tbaa !38
  %50 = trunc i32 %49 to i8
  %51 = load i32, ptr %12, align 4, !tbaa !38
  %52 = zext i32 %51 to i64
  %53 = getelementptr inbounds nuw [256 x i8], ptr %11, i64 0, i64 %52
  store i8 %50, ptr %53, align 1, !tbaa !78
  br label %54

54:                                               ; preds = %48
  %55 = load i32, ptr %12, align 4, !tbaa !38
  %56 = add i32 %55, 1
  store i32 %56, ptr %12, align 4, !tbaa !38
  br label %43, !llvm.loop !104

57:                                               ; preds = %47
  br label %58

58:                                               ; preds = %57
  %59 = load i32, ptr %13, align 4, !tbaa !38
  %60 = add nsw i32 %59, -1
  store i32 %60, ptr %13, align 4, !tbaa !38
  br label %29, !llvm.loop !105

61:                                               ; preds = %32
  %62 = load ptr, ptr %6, align 8, !tbaa !81
  %63 = getelementptr inbounds [256 x i8], ptr %11, i64 0, i64 0
  %64 = load i8, ptr %63, align 16, !tbaa !78
  %65 = zext i8 %64 to i32
  %66 = icmp sgt i32 %65, 9
  br i1 %66, label %67, label %68

67:                                               ; preds = %61
  br label %72

68:                                               ; preds = %61
  %69 = getelementptr inbounds [256 x i8], ptr %11, i64 0, i64 0
  %70 = load i8, ptr %69, align 16, !tbaa !78
  %71 = zext i8 %70 to i32
  br label %72

72:                                               ; preds = %68, %67
  %73 = phi i32 [ 9, %67 ], [ %71, %68 ]
  %74 = load i32, ptr %12, align 4, !tbaa !38
  %75 = getelementptr inbounds [256 x i8], ptr %11, i64 0, i64 0
  %76 = load ptr, ptr %9, align 8, !tbaa !102
  %77 = load ptr, ptr %76, align 8, !tbaa !49
  %78 = load i32, ptr %10, align 4, !tbaa !38
  %79 = call i32 @ff_vlc_init_from_lengths(ptr noundef %62, i32 noundef %73, i32 noundef %74, ptr noundef %75, i32 noundef 1, ptr noundef %77, i32 noundef 1, i32 noundef 1, i32 noundef %78, i32 noundef 3, ptr noundef null)
  %80 = load ptr, ptr %6, align 8, !tbaa !81
  %81 = getelementptr inbounds nuw %struct.VLC, ptr %80, i32 0, i32 2
  %82 = load i32, ptr %81, align 8, !tbaa !106
  %83 = load ptr, ptr %7, align 8, !tbaa !44
  %84 = load i32, ptr %83, align 4, !tbaa !38
  %85 = add i32 %84, %82
  store i32 %85, ptr %83, align 4, !tbaa !38
  %86 = load i32, ptr %12, align 4, !tbaa !38
  %87 = load ptr, ptr %9, align 8, !tbaa !102
  %88 = load ptr, ptr %87, align 8, !tbaa !49
  %89 = zext i32 %86 to i64
  %90 = getelementptr inbounds nuw i8, ptr %88, i64 %89
  store ptr %90, ptr %87, align 8, !tbaa !49
  call void @llvm.lifetime.end.p0(i64 4, ptr %12) #9
  call void @llvm.lifetime.end.p0(i64 256, ptr %11) #9
  ret void
}