; Function Attrs: cold nounwind optsize uwtable
define internal fastcc void @build_vlc(ptr noundef initializes((8, 16), (20, 24)) %0, ptr noundef nonnull captures(none) %1, ptr noundef readonly captures(none) %2, ptr noundef nonnull captures(none) %3, i32 noundef range(i32 -2147483646, -2147483648) %4) unnamed_addr #0 {
  %6 = alloca [256 x i8], align 16
  call void @llvm.lifetime.start.p0(i64 256, ptr nonnull %6) #8
  %7 = load i32, ptr %1, align 4, !tbaa !49
  %8 = zext i32 %7 to i64
  %9 = getelementptr inbounds nuw [9296 x %struct.VLCElem], ptr @build_vlc.vlc_buf, i64 0, i64 %8
  %10 = getelementptr inbounds nuw i8, ptr %0, i64 8
  store ptr %9, ptr %10, align 8, !tbaa !51
  %11 = sub i32 9296, %7
  %12 = getelementptr inbounds nuw i8, ptr %0, i64 20
  store i32 %11, ptr %12, align 4, !tbaa !89
  %invariant.gep = getelementptr i8, ptr %2, i64 -1
  br label %26

13:                                               ; preds = %._crit_edge
  %14 = load i8, ptr %6, align 16, !tbaa !29
  %15 = tail call i8 @llvm.umin.i8(i8 %14, i8 9)
  %16 = zext nneg i8 %15 to i32
  %17 = load ptr, ptr %3, align 8, !tbaa !86
  %18 = call i32 @ff_vlc_init_from_lengths(ptr noundef %0, i32 noundef %16, i32 noundef %.1.lcssa, ptr noundef nonnull %6, i32 noundef 1, ptr noundef %17, i32 noundef 1, i32 noundef 1, i32 noundef %4, i32 noundef 3, ptr noundef null) #8
  %19 = getelementptr inbounds nuw i8, ptr %0, i64 16
  %20 = load i32, ptr %19, align 8, !tbaa !90
  %21 = load i32, ptr %1, align 4, !tbaa !49
  %22 = add i32 %21, %20
  store i32 %22, ptr %1, align 4, !tbaa !49
  %23 = load ptr, ptr %3, align 8, !tbaa !86
  %24 = zext i32 %.1.lcssa to i64
  %25 = getelementptr inbounds nuw i8, ptr %23, i64 %24
  store ptr %25, ptr %3, align 8, !tbaa !86
  call void @llvm.lifetime.end.p0(i64 256, ptr nonnull %6) #8
  ret void

26:                                               ; preds = %5, %._crit_edge
  %indvars.iv = phi i64 [ 16, %5 ], [ %indvars.iv.next, %._crit_edge ]
  %.024 = phi i32 [ 0, %5 ], [ %.1.lcssa, %._crit_edge ]
  %gep = getelementptr i8, ptr %invariant.gep, i64 %indvars.iv
  %27 = load i8, ptr %gep, align 1, !tbaa !29
  %28 = zext i8 %27 to i32
  %29 = add i32 %.024, %28
  %30 = icmp ult i32 %.024, %29
  br i1 %30, label %.lr.ph, label %._crit_edge

.lr.ph:                                           ; preds = %26
  %31 = trunc i64 %indvars.iv to i8
  %32 = zext i32 %.024 to i64
  %scevgep = getelementptr i8, ptr %6, i64 %32
  %33 = add nsw i32 %28, -1
  %34 = zext i32 %33 to i64
  %35 = add nuw nsw i64 %34, 1
  call void @llvm.memset.p0.i64(ptr noundef nonnull align 1 dereferenceable(1) %scevgep, i8 %31, i64 %35, i1 false), !tbaa !29
  %36 = add i32 %.024, %28
  br label %._crit_edge

._crit_edge:                                      ; preds = %.lr.ph, %26
  %.1.lcssa = phi i32 [ %.024, %26 ], [ %36, %.lr.ph ]
  %indvars.iv.next = add nsw i64 %indvars.iv, -1
  %37 = icmp samesign ugt i64 %indvars.iv, 1
  br i1 %37, label %26, label %13, !llvm.loop !91
}